; Function Attrs: nounwind uwtable
define dso_local i32 @bb_build_bb_script(ptr noundef readonly captures(none) %0, ptr noundef %1) local_unnamed_addr #0 {
  %3 = alloca ptr, align 8
  call void @llvm.lifetime.start.p0(i64 8, ptr nonnull %3) #17
  store ptr null, ptr %3, align 8
  call void @_xstrcat(ptr noundef nonnull %3, ptr noundef nonnull @.str.83) #17
  %4 = getelementptr inbounds nuw i8, ptr %0, i64 120
  %5 = load ptr, ptr %4, align 8
  call void @_xstrcat(ptr noundef nonnull %3, ptr noundef %5) #17
  %6 = load ptr, ptr %3, align 8
  %7 = call i32 @bb_write_file(ptr noundef %1, ptr noundef %6)
  call void @slurm_xfree(ptr noundef nonnull %3) #17
  call void @llvm.lifetime.end.p0(i64 8, ptr nonnull %3) #17
  ret i32 %7
}